target datalayout = "e-m:e-p270:32:32-p271:32:32-p272:64:64-i64:64-i128:128-f80:128-n8:16:32:64-S128"
target triple = "x86_64-pc-linux-gnu"

%struct._GtkTreeIter = type { i32, ptr, ptr, ptr }

@.str.5 = private unnamed_addr constant [43 x i8] c"error getting the model from the tree_view\00", align 1
@.str.7 = private unnamed_addr constant [43 x i8] c"get pointer, error getting iter from model\00", align 1

; Function Attrs: nounwind uwtable
define dso_local ptr @get_pointer(ptr noundef %0, ptr noundef %1, i32 noundef %2) #0 {
  %4 = alloca ptr, align 8
  %5 = alloca ptr, align 8
  %6 = alloca ptr, align 8
  %7 = alloca i32, align 4
  %8 = alloca ptr, align 8
  %9 = alloca %struct._GtkTreeIter, align 8
  %10 = alloca ptr, align 8
  %11 = alloca i32, align 4
  store ptr %0, ptr %5, align 8
  store ptr %1, ptr %6, align 8
  store i32 %2, ptr %7, align 4
  call void @llvm.lifetime.start.p0(i64 8, ptr %8) #11
  %12 = load ptr, ptr %5, align 8
  %13 = call ptr @gtk_tree_view_get_model(ptr noundef %12)
  store ptr %13, ptr %8, align 8
  call void @llvm.lifetime.start.p0(i64 32, ptr %9) #11
  call void @llvm.lifetime.start.p0(i64 8, ptr %10) #11
  store ptr null, ptr %10, align 8
  %14 = load ptr, ptr %8, align 8
  %15 = icmp ne ptr %14, null
  br i1 %15, label %22, label %16

16:                                               ; preds = %3
  br label %17

17:                                               ; preds = %16
  call void (ptr, i32, ptr, ...) @g_log(ptr noundef null, i32 noundef 4, ptr noundef @.str.5)
  br label %18

18:                                               ; preds = %18, %17
  br label %18, !llvm.loop !20

19:                                               ; No predecessors!
  br label %20

20:                                               ; preds = %19
  %21 = load ptr, ptr %10, align 8
  store ptr %21, ptr %4, align 8
  store i32 1, ptr %11, align 4
  br label %37

22:                                               ; preds = %3
  %23 = load ptr, ptr %8, align 8
  %24 = load ptr, ptr %6, align 8
  %25 = call i32 @gtk_tree_model_get_iter(ptr noundef %23, ptr noundef %9, ptr noundef %24)
  %26 = icmp ne i32 %25, 0
  br i1 %26, label %33, label %27

27:                                               ; preds = %22
  br label %28

28:                                               ; preds = %27
  call void (ptr, i32, ptr, ...) @g_log(ptr noundef null, i32 noundef 4, ptr noundef @.str.7)
  br label %29

29:                                               ; preds = %29, %28
  br label %29, !llvm.loop !21

30:                                               ; No predecessors!
  br label %31

31:                                               ; preds = %30
  %32 = load ptr, ptr %10, align 8
  store ptr %32, ptr %4, align 8
  store i32 1, ptr %11, align 4
  br label %37

33:                                               ; preds = %22
  %34 = load ptr, ptr %8, align 8
  %35 = load i32, ptr %7, align 4
  call void (ptr, ptr, ...) @gtk_tree_model_get(ptr noundef %34, ptr noundef %9, i32 noundef %35, ptr noundef %10, i32 noundef -1)
  %36 = load ptr, ptr %10, align 8
  store ptr %36, ptr %4, align 8
  store i32 1, ptr %11, align 4
  br label %37

37:                                               ; preds = %33, %31, %20
  call void @llvm.lifetime.end.p0(i64 8, ptr %10) #11
  call void @llvm.lifetime.end.p0(i64 32, ptr %9) #11
  call void @llvm.lifetime.end.p0(i64 8, ptr %8) #11
  %38 = load ptr, ptr %4, align 8
  ret ptr %38
}