; Function Attrs: nounwind uwtable
define dso_local ptr @get_pointer(ptr noundef %0, ptr noundef %1, i32 noundef %2) local_unnamed_addr #2 {
  %4 = alloca %struct._GtkTreeIter, align 8
  %5 = alloca ptr, align 8
  %6 = tail call ptr @gtk_tree_view_get_model(ptr noundef %0) #16
  call void @llvm.lifetime.start.p0(i64 32, ptr nonnull %4) #16
  call void @llvm.lifetime.start.p0(i64 8, ptr nonnull %5) #16
  store ptr null, ptr %5, align 8
  %.not = icmp eq ptr %6, null
  br i1 %.not, label %7, label %9

7:                                                ; preds = %3
  tail call void (ptr, i32, ptr, ...) @g_log(ptr noundef null, i32 noundef 4, ptr noundef nonnull @.str.5) #16
  br label %8

8:                                                ; preds = %8, %7
  br label %8, !llvm.loop !18

9:                                                ; preds = %3
  %10 = call i32 @gtk_tree_model_get_iter(ptr noundef nonnull %6, ptr noundef nonnull %4, ptr noundef %1) #16
  %.not6 = icmp eq i32 %10, 0
  br i1 %.not6, label %11, label %13

11:                                               ; preds = %9
  call void (ptr, i32, ptr, ...) @g_log(ptr noundef null, i32 noundef 4, ptr noundef nonnull @.str.7) #16
  br label %12

12:                                               ; preds = %12, %11
  br label %12, !llvm.loop !19

13:                                               ; preds = %9
  call void (ptr, ptr, ...) @gtk_tree_model_get(ptr noundef nonnull %6, ptr noundef nonnull %4, i32 noundef %2, ptr noundef nonnull %5, i32 noundef -1) #16
  %14 = load ptr, ptr %5, align 8
  call void @llvm.lifetime.end.p0(i64 8, ptr nonnull %5) #16
  call void @llvm.lifetime.end.p0(i64 32, ptr nonnull %4) #16
  ret ptr %14
}